; Function Attrs: mustprogress nofree norecurse nosync nounwind willreturn memory(readwrite, inaccessiblemem: none) uwtable
define range(i32 0, 128) i32 @ff_vvc_sbt_horizontal_flag(ptr noundef readonly captures(none) %0) local_unnamed_addr #2 {
  %2 = getelementptr inbounds nuw i8, ptr %0, i64 4547736
  %3 = load ptr, ptr %2, align 8, !tbaa !124
  %4 = getelementptr inbounds nuw i8, ptr %3, i64 12
  %5 = load i32, ptr %4, align 4, !tbaa !132
  %6 = getelementptr inbounds nuw i8, ptr %3, i64 16
  %7 = load i32, ptr %6, align 8, !tbaa !133
  %8 = icmp eq i32 %5, %7
  %9 = icmp slt i32 %5, %7
  %10 = getelementptr inbounds nuw i8, ptr %0, i64 4580560
  %11 = load ptr, ptr %10, align 16, !tbaa !67
  %12 = getelementptr inbounds nuw i8, ptr %11, i64 2672
  %13 = getelementptr inbounds nuw i8, ptr %11, i64 400
  %14 = select i1 %9, i64 100, i64 101
  %15 = select i1 %8, i64 99, i64 %14
  %16 = getelementptr inbounds nuw %struct.VVCCabacState, ptr %13, i64 %15
  %17 = getelementptr inbounds nuw i8, ptr %11, i64 2676
  %18 = load i32, ptr %17, align 4, !tbaa !100
  %19 = ashr i32 %18, 5
  %20 = getelementptr inbounds nuw i8, ptr %16, i64 2
  %21 = load i16, ptr %20, align 2, !tbaa !58
  %22 = zext i16 %21 to i32
  %23 = load i16, ptr %16, align 2, !tbaa !58
  %24 = zext i16 %23 to i32
  %25 = shl nuw nsw i32 %24, 4
  %26 = add nuw nsw i32 %25, %22
  %.not.i = icmp samesign ult i32 %26, 16384
  %27 = sub nsw i32 32767, %26
  %28 = select i1 %.not.i, i32 %26, i32 %27
  %29 = ashr i32 %28, 9
  %30 = mul nsw i32 %29, %19
  %31 = ashr i32 %30, 1
  %32 = add nsw i32 %31, 4
  %33 = sub nsw i32 %18, %32
  %34 = shl i32 %33, 17
  %35 = load i32, ptr %12, align 8, !tbaa !70
  %36 = icmp slt i32 %34, %35
  %37 = select i1 %36, i32 %34, i32 0
  %38 = sub nsw i32 %35, %37
  %39 = select i1 %36, i32 %32, i32 %33
  %40 = sext i32 %39 to i64
  %41 = getelementptr inbounds i8, ptr @ff_h264_cabac_tables, i64 %40
  %42 = load i8, ptr %41, align 1, !tbaa !97
  %43 = zext i8 %42 to i32
  %44 = shl i32 %39, %43
  store i32 %44, ptr %17, align 4, !tbaa !100
  %45 = shl i32 %38, %43
  store i32 %45, ptr %12, align 8, !tbaa !70
  %46 = and i32 %45, 65535
  %.not42.i = icmp eq i32 %46, 0
  br i1 %.not42.i, label %47, label %vvc_get_cabac.exit

47:                                               ; preds = %1
  %48 = add nsw i32 %45, -1
  %49 = xor i32 %48, %45
  %50 = lshr i32 %49, 15
  %51 = zext nneg i32 %50 to i64
  %52 = getelementptr inbounds nuw i8, ptr @ff_h264_cabac_tables, i64 %51
  %53 = load i8, ptr %52, align 1, !tbaa !97
  %54 = zext i8 %53 to i32
  %55 = sub nsw i32 7, %54
  %56 = getelementptr inbounds nuw i8, ptr %11, i64 2688
  %57 = load ptr, ptr %56, align 8, !tbaa !68
  %58 = load i8, ptr %57, align 1, !tbaa !97
  %59 = zext i8 %58 to i32
  %60 = shl nuw nsw i32 %59, 9
  %61 = getelementptr inbounds nuw i8, ptr %57, i64 1
  %62 = load i8, ptr %61, align 1, !tbaa !97
  %63 = zext i8 %62 to i32
  %64 = shl nuw nsw i32 %63, 1
  %65 = or disjoint i32 %64, %60
  %66 = add nsw i32 %65, -65535
  %67 = shl nsw i32 %66, %55
  %68 = add i32 %67, %45
  store i32 %68, ptr %12, align 8, !tbaa !70
  %69 = getelementptr inbounds nuw i8, ptr %11, i64 2696
  %70 = load ptr, ptr %69, align 8, !tbaa !71
  %71 = icmp ult ptr %57, %70
  br i1 %71, label %72, label %vvc_get_cabac.exit

72:                                               ; preds = %47
  %73 = getelementptr inbounds nuw i8, ptr %57, i64 2
  store ptr %73, ptr %56, align 8, !tbaa !68
  br label %vvc_get_cabac.exit

vvc_get_cabac.exit:                               ; preds = %1, %47, %72
  %74 = lshr i32 %26, 14
  %75 = zext i1 %36 to i32
  %76 = xor i32 %74, %75
  %77 = getelementptr inbounds nuw i8, ptr %16, i64 4
  %78 = load i8, ptr %77, align 2, !tbaa !97
  %79 = zext i8 %78 to i32
  %80 = lshr i32 %24, %79
  %81 = sub nsw i32 %24, %80
  %82 = mul nuw nsw i32 %76, 1023
  %83 = lshr i32 %82, %79
  %84 = add nsw i32 %81, %83
  %85 = trunc i32 %84 to i16
  store i16 %85, ptr %16, align 2, !tbaa !58
  %86 = getelementptr inbounds nuw i8, ptr %16, i64 5
  %87 = load i8, ptr %86, align 1, !tbaa !97
  %88 = zext i8 %87 to i32
  %89 = lshr i32 %22, %88
  %90 = sub nsw i32 %22, %89
  %91 = mul nuw nsw i32 %76, 16383
  %92 = lshr i32 %91, %88
  %93 = add nsw i32 %90, %92
  %94 = trunc i32 %93 to i16
  store i16 %94, ptr %20, align 2, !tbaa !58
  ret i32 %76
}